
t4.elf:     file format elf32-littleriscv


Disassembly of section .text:

00000000 <_start>:
   0:	00010117          	auipc	sp,0x10
   4:	01010113          	add	sp,sp,16 # 10010 <_stack_start>
   8:	2099                	jal	4e <main>

0000000a <loop>:
   a:	48a9                	li	a7,10
   c:	00000073          	ecall
  10:	bfed                	j	a <loop>

00000012 <printInt>:
  12:	1101                	add	sp,sp,-32
  14:	ce22                	sw	s0,28(sp)
  16:	1000                	add	s0,sp,32
  18:	fea42623          	sw	a0,-20(s0)
  1c:	4885                	li	a7,1
  1e:	853e                	mv	a0,a5
  20:	fef42623          	sw	a5,-20(s0)
  24:	00000073          	ecall
  28:	0001                	nop
  2a:	4472                	lw	s0,28(sp)
  2c:	6105                	add	sp,sp,32
  2e:	8082                	ret

00000030 <printString>:
  30:	1101                	add	sp,sp,-32
  32:	ce22                	sw	s0,28(sp)
  34:	1000                	add	s0,sp,32
  36:	fea42623          	sw	a0,-20(s0)
  3a:	4891                	li	a7,4
  3c:	853e                	mv	a0,a5
  3e:	fef42623          	sw	a5,-20(s0)
  42:	00000073          	ecall
  46:	0001                	nop
  48:	4472                	lw	s0,28(sp)
  4a:	6105                	add	sp,sp,32
  4c:	8082                	ret

0000004e <main>:
  4e:	1101                	add	sp,sp,-32
  50:	ce06                	sw	ra,28(sp)
  52:	cc22                	sw	s0,24(sp)
  54:	1000                	add	s0,sp,32
  56:	fe042623          	sw	zero,-20(s0)
  5a:	a031                	j	66 <main+0x18>
  5c:	fec42783          	lw	a5,-20(s0)
  60:	0785                	add	a5,a5,1
  62:	fef42623          	sw	a5,-20(s0)
  66:	67c1                	lui	a5,0x10
  68:	00078713          	mv	a4,a5
  6c:	fec42783          	lw	a5,-20(s0)
  70:	97ba                	add	a5,a5,a4
  72:	0007c783          	lbu	a5,0(a5) # 10000 <s1>
  76:	f3fd                	bnez	a5,5c <main+0xe>
  78:	fe042423          	sw	zero,-24(s0)
  7c:	a81d                	j	b2 <main+0x64>
  7e:	67c1                	lui	a5,0x10
  80:	06478713          	add	a4,a5,100 # 10064 <s2>
  84:	fe842783          	lw	a5,-24(s0)
  88:	97ba                	add	a5,a5,a4
  8a:	0007c703          	lbu	a4,0(a5)
  8e:	67c1                	lui	a5,0x10
  90:	00078693          	mv	a3,a5
  94:	fec42783          	lw	a5,-20(s0)
  98:	97b6                	add	a5,a5,a3
  9a:	00e78023          	sb	a4,0(a5) # 10000 <s1>
  9e:	fe842783          	lw	a5,-24(s0)
  a2:	0785                	add	a5,a5,1
  a4:	fef42423          	sw	a5,-24(s0)
  a8:	fec42783          	lw	a5,-20(s0)
  ac:	0785                	add	a5,a5,1
  ae:	fef42623          	sw	a5,-20(s0)
  b2:	67c1                	lui	a5,0x10
  b4:	06478713          	add	a4,a5,100 # 10064 <s2>
  b8:	fe842783          	lw	a5,-24(s0)
  bc:	97ba                	add	a5,a5,a4
  be:	0007c783          	lbu	a5,0(a5)
  c2:	ffd5                	bnez	a5,7e <main+0x30>
  c4:	67c1                	lui	a5,0x10
  c6:	00078713          	mv	a4,a5
  ca:	fec42783          	lw	a5,-20(s0)
  ce:	97ba                	add	a5,a5,a4
  d0:	00078023          	sb	zero,0(a5) # 10000 <s1>
  d4:	0f000513          	li	a0,240
  d8:	3fa1                	jal	30 <printString>
  da:	67c1                	lui	a5,0x10
  dc:	00078513          	mv	a0,a5
  e0:	3f81                	jal	30 <printString>
  e2:	4785                	li	a5,1
  e4:	853e                	mv	a0,a5
  e6:	40f2                	lw	ra,28(sp)
  e8:	4462                	lw	s0,24(sp)
  ea:	6105                	add	sp,sp,32
  ec:	8082                	ret
